target datalayout = "e-m:e-p270:32:32-p271:32:32-p272:64:64-i64:64-i128:128-f80:128-n8:16:32:64-S128"
target triple = "x86_64-pc-linux-gnu"

%struct.slowlogEntry = type { ptr, i32, i64, i64, i64, ptr, ptr }

; Function Attrs: nounwind uwtable
define dso_local void @slowlogFreeEntry(ptr noundef %0) #0 {
  %2 = alloca ptr, align 8
  %3 = alloca ptr, align 8
  %4 = alloca i32, align 4
  store ptr %0, ptr %2, align 8, !tbaa !74
  call void @llvm.lifetime.start.p0(i64 8, ptr %3) #8
  %5 = load ptr, ptr %2, align 8, !tbaa !74
  store ptr %5, ptr %3, align 8, !tbaa !16
  call void @llvm.lifetime.start.p0(i64 4, ptr %4) #8
  store i32 0, ptr %4, align 4, !tbaa !12
  br label %6

6:                                                ; preds = %20, %1
  %7 = load i32, ptr %4, align 4, !tbaa !12
  %8 = load ptr, ptr %3, align 8, !tbaa !16
  %9 = getelementptr inbounds nuw %struct.slowlogEntry, ptr %8, i32 0, i32 1
  %10 = load i32, ptr %9, align 8, !tbaa !18
  %11 = icmp slt i32 %7, %10
  br i1 %11, label %12, label %23

12:                                               ; preds = %6
  %13 = load ptr, ptr %3, align 8, !tbaa !16
  %14 = getelementptr inbounds nuw %struct.slowlogEntry, ptr %13, i32 0, i32 0
  %15 = load ptr, ptr %14, align 8, !tbaa !22
  %16 = load i32, ptr %4, align 4, !tbaa !12
  %17 = sext i32 %16 to i64
  %18 = getelementptr inbounds ptr, ptr %15, i64 %17
  %19 = load ptr, ptr %18, align 8, !tbaa !23
  call void @decrRefCount(ptr noundef %19)
  br label %20

20:                                               ; preds = %12
  %21 = load i32, ptr %4, align 4, !tbaa !12
  %22 = add nsw i32 %21, 1
  store i32 %22, ptr %4, align 4, !tbaa !12
  br label %6, !llvm.loop !75

23:                                               ; preds = %6
  %24 = load ptr, ptr %3, align 8, !tbaa !16
  %25 = getelementptr inbounds nuw %struct.slowlogEntry, ptr %24, i32 0, i32 0
  %26 = load ptr, ptr %25, align 8, !tbaa !22
  call void @zfree(ptr noundef %26)
  %27 = load ptr, ptr %3, align 8, !tbaa !16
  %28 = getelementptr inbounds nuw %struct.slowlogEntry, ptr %27, i32 0, i32 6
  %29 = load ptr, ptr %28, align 8, !tbaa !59
  call void @sdsfree(ptr noundef %29)
  %30 = load ptr, ptr %3, align 8, !tbaa !16
  %31 = getelementptr inbounds nuw %struct.slowlogEntry, ptr %30, i32 0, i32 5
  %32 = load ptr, ptr %31, align 8, !tbaa !69
  call void @sdsfree(ptr noundef %32)
  %33 = load ptr, ptr %3, align 8, !tbaa !16
  call void @zfree(ptr noundef %33)
  call void @llvm.lifetime.end.p0(i64 4, ptr %4) #8
  call void @llvm.lifetime.end.p0(i64 8, ptr %3) #8
  ret void
}