; Function Attrs: nounwind uwtable
define dso_local void @slowlogFreeEntry(ptr noundef %0) #0 {
  %2 = getelementptr inbounds nuw i8, ptr %0, i64 8
  %3 = load i32, ptr %2, align 8, !tbaa !5
  %4 = icmp sgt i32 %3, 0
  br i1 %4, label %.lr.ph, label %._crit_edge

.lr.ph:                                           ; preds = %1, %.lr.ph
  %indvars.iv = phi i64 [ %indvars.iv.next, %.lr.ph ], [ 0, %1 ]
  %5 = load ptr, ptr %0, align 8, !tbaa !15
  %6 = getelementptr inbounds nuw ptr, ptr %5, i64 %indvars.iv
  %7 = load ptr, ptr %6, align 8, !tbaa !16
  tail call void @decrRefCount(ptr noundef %7) #9
  %indvars.iv.next = add nuw nsw i64 %indvars.iv, 1
  %8 = load i32, ptr %2, align 8, !tbaa !5
  %9 = sext i32 %8 to i64
  %10 = icmp slt i64 %indvars.iv.next, %9
  br i1 %10, label %.lr.ph, label %._crit_edge, !llvm.loop !68

._crit_edge:                                      ; preds = %.lr.ph, %1
  %11 = load ptr, ptr %0, align 8, !tbaa !15
  tail call void @zfree(ptr noundef %11) #9
  %12 = getelementptr inbounds nuw i8, ptr %0, i64 48
  %13 = load ptr, ptr %12, align 8, !tbaa !57
  tail call void @sdsfree(ptr noundef %13) #9
  %14 = getelementptr inbounds nuw i8, ptr %0, i64 40
  %15 = load ptr, ptr %14, align 8, !tbaa !67
  tail call void @sdsfree(ptr noundef %15) #9
  tail call void @zfree(ptr noundef nonnull %0) #9
  ret void
}